; ModuleID = '7/1029.c'
source_filename = "7/1029.c"
target datalayout = "e-m:e-p270:32:32-p271:32:32-p272:64:64-i64:64-f80:128-n8:16:32:64-S128"
target triple = "x86_64-pc-linux-gnu"

@.str = private unnamed_addr constant [3 x i8] c"%s\00", align 1
@.str.1 = private unnamed_addr constant [3 x i8] c"%c\00", align 1

; Function Attrs: noinline nounwind uwtable
define dso_local i32 @main() #0 {
  %1 = alloca i32, align 4
  %2 = alloca [256 x i8], align 16
  %3 = alloca [206 x i8], align 16
  %4 = alloca [256 x i8], align 16
  %5 = alloca i32, align 4
  %6 = alloca i32, align 4
  %7 = alloca i32, align 4
  %8 = alloca i32, align 4
  store i32 0, i32* %1, align 4
  %9 = getelementptr inbounds [256 x i8], [256 x i8]* %2, i64 0, i64 0
  %10 = call i32 (i8*, ...) @__isoc99_scanf(i8* getelementptr inbounds ([3 x i8], [3 x i8]* @.str, i64 0, i64 0), i8* %9)
  %11 = getelementptr inbounds [206 x i8], [206 x i8]* %3, i64 0, i64 0
  %12 = call i32 (i8*, ...) @__isoc99_scanf(i8* getelementptr inbounds ([3 x i8], [3 x i8]* @.str, i64 0, i64 0), i8* %11)
  %13 = getelementptr inbounds [256 x i8], [256 x i8]* %4, i64 0, i64 0
  %14 = call i32 (i8*, ...) @__isoc99_scanf(i8* getelementptr inbounds ([3 x i8], [3 x i8]* @.str, i64 0, i64 0), i8* %13)
  %15 = getelementptr inbounds [206 x i8], [206 x i8]* %3, i64 0, i64 0
  %16 = call i64 @strlen(i8* %15) #3
  %17 = trunc i64 %16 to i32
  store i32 %17, i32* %7, align 4
  %18 = getelementptr inbounds [256 x i8], [256 x i8]* %2, i64 0, i64 0
  %19 = call i64 @strlen(i8* %18) #3
  %20 = trunc i64 %19 to i32
  store i32 %20, i32* %8, align 4
  store i32 0, i32* %5, align 4
  br label %21

21:                                               ; preds = %104, %0
  %22 = load i32, i32* %5, align 4
  %23 = load i32, i32* %8, align 4
  %24 = load i32, i32* %7, align 4
  %25 = sub nsw i32 %23, %24
  %26 = add nsw i32 %25, 1
  %27 = icmp slt i32 %22, %26
  br i1 %27, label %28, label %107

28:                                               ; preds = %21
  %29 = load i32, i32* %5, align 4
  %30 = sext i32 %29 to i64
  %31 = getelementptr inbounds [256 x i8], [256 x i8]* %2, i64 0, i64 %30
  %32 = load i8, i8* %31, align 1
  %33 = sext i8 %32 to i32
  %34 = getelementptr inbounds [206 x i8], [206 x i8]* %3, i64 0, i64 0
  %35 = load i8, i8* %34, align 16
  %36 = sext i8 %35 to i32
  %37 = icmp eq i32 %33, %36
  br i1 %37, label %38, label %63

38:                                               ; preds = %28
  store i32 0, i32* %6, align 4
  br label %39

39:                                               ; preds = %59, %38
  %40 = load i32, i32* %6, align 4
  %41 = load i32, i32* %7, align 4
  %42 = icmp slt i32 %40, %41
  br i1 %42, label %43, label %62

43:                                               ; preds = %39
  %44 = load i32, i32* %5, align 4
  %45 = load i32, i32* %6, align 4
  %46 = add nsw i32 %44, %45
  %47 = sext i32 %46 to i64
  %48 = getelementptr inbounds [256 x i8], [256 x i8]* %2, i64 0, i64 %47
  %49 = load i8, i8* %48, align 1
  %50 = sext i8 %49 to i32
  %51 = load i32, i32* %6, align 4
  %52 = sext i32 %51 to i64
  %53 = getelementptr inbounds [206 x i8], [206 x i8]* %3, i64 0, i64 %52
  %54 = load i8, i8* %53, align 1
  %55 = sext i8 %54 to i32
  %56 = icmp ne i32 %50, %55
  br i1 %56, label %57, label %58

57:                                               ; preds = %43
  br label %62

58:                                               ; preds = %43
  br label %59

59:                                               ; preds = %58
  %60 = load i32, i32* %6, align 4
  %61 = add nsw i32 %60, 1
  store i32 %61, i32* %6, align 4
  br label %39

62:                                               ; preds = %57, %39
  br label %63

63:                                               ; preds = %62, %28
  %64 = load i32, i32* %6, align 4
  %65 = load i32, i32* %7, align 4
  %66 = icmp eq i32 %64, %65
  br i1 %66, label %67, label %103

67:                                               ; preds = %63
  store i32 0, i32* %6, align 4
  br label %68

68:                                               ; preds = %79, %67
  %69 = load i32, i32* %6, align 4
  %70 = load i32, i32* %5, align 4
  %71 = icmp slt i32 %69, %70
  br i1 %71, label %72, label %82

72:                                               ; preds = %68
  %73 = load i32, i32* %6, align 4
  %74 = sext i32 %73 to i64
  %75 = getelementptr inbounds [256 x i8], [256 x i8]* %2, i64 0, i64 %74
  %76 = load i8, i8* %75, align 1
  %77 = sext i8 %76 to i32
  %78 = call i32 (i8*, ...) @printf(i8* getelementptr inbounds ([3 x i8], [3 x i8]* @.str.1, i64 0, i64 0), i32 %77)
  br label %79

79:                                               ; preds = %72
  %80 = load i32, i32* %6, align 4
  %81 = add nsw i32 %80, 1
  store i32 %81, i32* %6, align 4
  br label %68

82:                                               ; preds = %68
  %83 = getelementptr inbounds [256 x i8], [256 x i8]* %4, i64 0, i64 0
  %84 = call i32 (i8*, ...) @printf(i8* getelementptr inbounds ([3 x i8], [3 x i8]* @.str, i64 0, i64 0), i8* %83)
  %85 = load i32, i32* %5, align 4
  %86 = load i32, i32* %7, align 4
  %87 = add nsw i32 %85, %86
  store i32 %87, i32* %6, align 4
  br label %88

88:                                               ; preds = %99, %82
  %89 = load i32, i32* %6, align 4
  %90 = load i32, i32* %8, align 4
  %91 = icmp slt i32 %89, %90
  br i1 %91, label %92, label %102

92:                                               ; preds = %88
  %93 = load i32, i32* %6, align 4
  %94 = sext i32 %93 to i64
  %95 = getelementptr inbounds [256 x i8], [256 x i8]* %2, i64 0, i64 %94
  %96 = load i8, i8* %95, align 1
  %97 = sext i8 %96 to i32
  %98 = call i32 (i8*, ...) @printf(i8* getelementptr inbounds ([3 x i8], [3 x i8]* @.str.1, i64 0, i64 0), i32 %97)
  br label %99

99:                                               ; preds = %92
  %100 = load i32, i32* %6, align 4
  %101 = add nsw i32 %100, 1
  store i32 %101, i32* %6, align 4
  br label %88

102:                                              ; preds = %88
  br label %107

103:                                              ; preds = %63
  br label %104

104:                                              ; preds = %103
  %105 = load i32, i32* %5, align 4
  %106 = add nsw i32 %105, 1
  store i32 %106, i32* %5, align 4
  br label %21

107:                                              ; preds = %102, %21
  %108 = load i32, i32* %5, align 4
  %109 = load i32, i32* %8, align 4
  %110 = add nsw i32 1, %109
  %111 = load i32, i32* %7, align 4
  %112 = sub nsw i32 %110, %111
  %113 = icmp eq i32 %108, %112
  br i1 %113, label %114, label %117

114:                                              ; preds = %107
  %115 = getelementptr inbounds [256 x i8], [256 x i8]* %2, i64 0, i64 0
  %116 = call i32 (i8*, ...) @printf(i8* getelementptr inbounds ([3 x i8], [3 x i8]* @.str, i64 0, i64 0), i8* %115)
  br label %117

117:                                              ; preds = %114, %107
  %118 = load i32, i32* %1, align 4
  ret i32 %118
}

declare dso_local i32 @__isoc99_scanf(i8*, ...) #1

; Function Attrs: nounwind readonly
declare dso_local i64 @strlen(i8*) #2

declare dso_local i32 @printf(i8*, ...) #1


!llvm.module.flags = !{!0}
!llvm.ident = !{!1}

!0 = !{i32 1, !"wchar_size", i32 4}
!1 = !{!"clang version 10.0.0-4ubuntu1 "}
